target datalayout = "e-m:e-p270:32:32-p271:32:32-p272:64:64-i64:64-i128:128-f80:128-n8:16:32:64-S128"
target triple = "x86_64-pc-linux-gnu"

@.str.2 = private unnamed_addr constant [15 x i8] c"Security Level\00", align 1
@zbee_security_register.ett = internal global [2 x ptr] [ptr @ett_zbee_sec, ptr @ett_zbee_sec_control], align 16
@.str.38 = private unnamed_addr constant [9 x i8] c"seclevel\00", align 1
@.str.39 = private unnamed_addr constant [125 x i8] c"Specifies the security level to use in the\0Adecryption process. This value is ignored\0Afor ZigBee 2004 and unsecured networks.\00", align 1
@gPREF_zbee_sec_level = internal global i32 5, align 4
@.str.40 = private unnamed_addr constant [20 x i8] c"Pre-configured Keys\00", align 1
@.str.41 = private unnamed_addr constant [15 x i8] c"zigbee_pc_keys\00", align 1
@uat_key_records = internal global ptr null, align 8
@num_uat_key_records = internal global i32 0, align 4
@zbee_sec_key_table_uat = internal global ptr null, align 8
@.str.42 = private unnamed_addr constant [10 x i8] c"key_table\00", align 1
@.str.43 = private unnamed_addr constant [37 x i8] c"Pre-configured link or network keys.\00", align 1

; Function Attrs: nounwind uwtable
define hidden void @zbee_security_register(ptr noundef %0, i32 noundef %1) #0 {
  %3 = alloca ptr, align 8
  %4 = alloca i32, align 4
  %5 = alloca ptr, align 8
  store ptr %0, ptr %3, align 8
  store i32 %1, ptr %4, align 4
  %6 = load ptr, ptr %3, align 8
  %7 = icmp eq ptr %6, null
  br i1 %7, label %8, label %11

8:                                                ; preds = %2
  %9 = load i32, ptr %4, align 4
  %10 = call ptr @prefs_register_protocol(i32 noundef %9, ptr noundef null)
  store ptr %10, ptr %3, align 8
  br label %11

11:                                               ; preds = %8, %2
  %12 = load ptr, ptr %3, align 8
  call void @prefs_register_enum_preference(ptr noundef %12, ptr noundef @.str.38, ptr noundef @.str.2, ptr noundef @.str.39, ptr noundef @gPREF_zbee_sec_level, ptr noundef @zbee_sec_level_enums, i32 noundef 0)
  %13 = call ptr @uat_new(ptr noundef @.str.40, i64 noundef 24, ptr noundef @.str.41, i1 noundef zeroext true, ptr noundef @uat_key_records, ptr noundef @num_uat_key_records, i32 noundef 1, ptr noundef null, ptr noundef @uat_key_record_copy_cb, ptr noundef @uat_key_record_update_cb, ptr noundef @uat_key_record_free_cb, ptr noundef @uat_key_record_post_update, ptr noundef null, ptr noundef @zbee_security_register.key_uat_fields)
  store ptr %13, ptr @zbee_sec_key_table_uat, align 8
  %14 = load ptr, ptr %3, align 8
  %15 = load ptr, ptr @zbee_sec_key_table_uat, align 8
  call void @prefs_register_uat_preference(ptr noundef %14, ptr noundef @.str.42, ptr noundef @.str.40, ptr noundef @.str.43, ptr noundef %15)
  %16 = load i32, ptr %4, align 4
  call void @proto_register_field_array(i32 noundef %16, ptr noundef @zbee_security_register.hf, i32 noundef 12)
  call void @proto_register_subtree_array(ptr noundef @zbee_security_register.ett, i32 noundef 2)
  %17 = load i32, ptr %4, align 4
  %18 = call ptr @expert_register_protocol(i32 noundef %17)
  store ptr %18, ptr %5, align 8
  %19 = load ptr, ptr %5, align 8
  call void @expert_register_field_array(ptr noundef %19, ptr noundef @zbee_security_register.ei, i32 noundef 3)
  ret void
}