; Function Attrs: nounwind uwtable
define hidden void @zbee_security_register(ptr noundef %0, i32 noundef %1) local_unnamed_addr #0 {
  %3 = icmp eq ptr %0, null
  br i1 %3, label %4, label %6

4:                                                ; preds = %2
  %5 = tail call ptr @prefs_register_protocol(i32 noundef %1, ptr noundef null) #11
  br label %6

6:                                                ; preds = %4, %2
  %.0 = phi ptr [ %5, %4 ], [ %0, %2 ]
  tail call void @prefs_register_enum_preference(ptr noundef %.0, ptr noundef nonnull @.str.38, ptr noundef nonnull @.str.2, ptr noundef nonnull @.str.39, ptr noundef nonnull @gPREF_zbee_sec_level, ptr noundef nonnull @zbee_sec_level_enums, i32 noundef 0) #11
  %7 = tail call ptr @uat_new(ptr noundef nonnull @.str.40, i64 noundef 24, ptr noundef nonnull @.str.41, i1 noundef zeroext true, ptr noundef nonnull @uat_key_records, ptr noundef nonnull @num_uat_key_records, i32 noundef 1, ptr noundef null, ptr noundef nonnull @uat_key_record_copy_cb, ptr noundef nonnull @uat_key_record_update_cb, ptr noundef nonnull @uat_key_record_free_cb, ptr noundef nonnull @uat_key_record_post_update, ptr noundef null, ptr noundef nonnull @zbee_security_register.key_uat_fields) #11
  store ptr %7, ptr @zbee_sec_key_table_uat, align 8
  tail call void @prefs_register_uat_preference(ptr noundef %.0, ptr noundef nonnull @.str.42, ptr noundef nonnull @.str.40, ptr noundef nonnull @.str.43, ptr noundef %7) #11
  tail call void @proto_register_field_array(i32 noundef %1, ptr noundef nonnull @zbee_security_register.hf, i32 noundef 12) #11
  tail call void @proto_register_subtree_array(ptr noundef nonnull @zbee_security_register.ett, i32 noundef 2) #11
  %8 = tail call ptr @expert_register_protocol(i32 noundef %1) #11
  tail call void @expert_register_field_array(ptr noundef %8, ptr noundef nonnull @zbee_security_register.ei, i32 noundef 3) #11
  ret void
}